; Function Attrs: nounwind sspstrong uwtable
define dso_local i64 @rb_ractor_local_storage_value(ptr noundef %0) local_unnamed_addr #0 {
  %2 = alloca ptr, align 8
  call void @llvm.lifetime.start.p0(i64 8, ptr nonnull %2) #19
  %3 = load ptr, ptr @ruby_single_main_ractor, align 8, !tbaa !39
  %.not.i.i = icmp eq ptr %3, null
  br i1 %.not.i.i, label %rb_ractor_main_p.exit.i, label %rb_ractor_main_p.exit.thread.i

rb_ractor_main_p.exit.i:                          ; preds = %1
  %4 = tail call align 8 ptr @llvm.threadlocal.address.p0(ptr align 8 @ruby_current_ec)
  %5 = load ptr, ptr %4, align 8, !tbaa !123
  %6 = getelementptr i8, ptr %5, i64 48
  %.val.i.i.i = load ptr, ptr %6, align 8, !tbaa !90, !nonnull !99, !noundef !99
  %7 = getelementptr inbounds nuw i8, ptr %.val.i.i.i, i64 24
  %8 = load ptr, ptr %7, align 8, !tbaa !57
  %9 = getelementptr inbounds nuw i8, ptr %.val.i.i.i, i64 32
  %10 = load ptr, ptr %9, align 8, !tbaa !79
  %11 = getelementptr inbounds nuw i8, ptr %10, i64 32
  %12 = load ptr, ptr %11, align 8, !tbaa !124
  %13 = icmp eq ptr %8, %12
  br i1 %13, label %rb_ractor_main_p.exit.thread.i, label %rb_current_ractor.exit.i

rb_ractor_main_p.exit.thread.i:                   ; preds = %rb_ractor_main_p.exit.i, %1
  %14 = getelementptr inbounds nuw i8, ptr %0, i64 8
  %15 = load ptr, ptr %14, align 8, !tbaa !180
  %16 = icmp eq ptr %15, inttoptr (i64 36 to ptr)
  br i1 %16, label %ractor_local_ref.exit, label %22

rb_current_ractor.exit.i:                         ; preds = %rb_ractor_main_p.exit.i
  %17 = getelementptr inbounds nuw i8, ptr %8, i64 448
  %18 = load ptr, ptr %17, align 8, !tbaa !188
  %.not.i = icmp eq ptr %18, null
  br i1 %.not.i, label %ractor_local_ref.exit, label %19

19:                                               ; preds = %rb_current_ractor.exit.i
  %20 = ptrtoint ptr %0 to i64
  %21 = call i32 @rb_st_lookup(ptr noundef nonnull %18, i64 noundef %20, ptr noundef nonnull %2) #19
  %.not9.i = icmp eq i32 %21, 0
  br i1 %.not9.i, label %ractor_local_ref.exit, label %._crit_edge

._crit_edge:                                      ; preds = %19
  %.pre = load ptr, ptr %2, align 8
  br label %22

22:                                               ; preds = %rb_ractor_main_p.exit.thread.i, %._crit_edge
  %23 = phi ptr [ %.pre, %._crit_edge ], [ %15, %rb_ractor_main_p.exit.thread.i ]
  %24 = ptrtoint ptr %23 to i64
  br label %ractor_local_ref.exit

ractor_local_ref.exit:                            ; preds = %rb_ractor_main_p.exit.thread.i, %19, %rb_current_ractor.exit.i, %22
  %25 = phi i64 [ %24, %22 ], [ 4, %rb_current_ractor.exit.i ], [ 4, %19 ], [ 4, %rb_ractor_main_p.exit.thread.i ]
  call void @llvm.lifetime.end.p0(i64 8, ptr nonnull %2) #19
  ret i64 %25
}